; Function Attrs: mustprogress nofree norecurse nosync nounwind willreturn memory(argmem: read) uwtable
define hidden noundef i64 @_ZN6hermes2vm7HadesGC12getDrainRateEv(ptr nocapture noundef nonnull readonly align 8 dereferenceable(8152) %this) local_unnamed_addr #8 align 2 {
entry:
  %avg_.i = getelementptr inbounds i8, ptr %this, i64 8072
  %0 = load double, ptr %avg_.i, align 8
  %mul = fmul double %0, 3.000000e+00
  %conv = fptoui double %mul to i64
  %.sroa.speculated = tail call i64 @llvm.umax.i64(i64 %conv, i64 8192)
  ret i64 %.sroa.speculated
}